target datalayout = "e-m:e-p270:32:32-p271:32:32-p272:64:64-i64:64-i128:128-f80:128-n8:16:32:64-S128"
target triple = "x86_64-pc-linux-gnu"

@hf_s5066dts_exp_non_arq_data_cpdu_id_1 = internal global i32 0, align 4
@hf_s5066dts_exp_non_arq_data_deliver_in_order = internal global i32 0, align 4
@hf_s5066dts_exp_non_arq_data_group_address = internal global i32 0, align 4
@hf_s5066dts_exp_non_arq_data_cpdu_id_2 = internal global i32 0, align 4
@hf_s5066dts_exp_non_arq_data_cpdu_size = internal global i32 0, align 4
@hf_s5066dts_exp_non_arq_data_cpdu_segment_offset = internal global i32 0, align 4
@hf_s5066dts_exp_non_arq_data_cpdu_reception_window = internal global i32 0, align 4
@hf_s5066dts_exp_non_arq_data_segmented_cpdu_size = internal global i32 0, align 4

; Function Attrs: null_pointer_is_valid sspstrong uwtable
define internal i32 @dissect_s5066dts_exp_non_arq_data(ptr noundef %0, i32 noundef %1, ptr noundef %2) #0 {
  %4 = alloca ptr, align 8
  %5 = alloca i32, align 4
  %6 = alloca ptr, align 8
  store ptr %0, ptr %4, align 8
  store i32 %1, ptr %5, align 4
  store ptr %2, ptr %6, align 8
  %7 = load ptr, ptr %6, align 8
  %8 = load i32, ptr @hf_s5066dts_exp_non_arq_data_cpdu_id_1, align 4
  %9 = load ptr, ptr %4, align 8
  %10 = load i32, ptr %5, align 4
  %11 = call ptr @proto_tree_add_item(ptr noundef %7, i32 noundef %8, ptr noundef %9, i32 noundef %10, i32 noundef 1, i32 noundef 0)
  %12 = load ptr, ptr %6, align 8
  %13 = load i32, ptr @hf_s5066dts_exp_non_arq_data_deliver_in_order, align 4
  %14 = load ptr, ptr %4, align 8
  %15 = load i32, ptr %5, align 4
  %16 = call ptr @proto_tree_add_item(ptr noundef %12, i32 noundef %13, ptr noundef %14, i32 noundef %15, i32 noundef 1, i32 noundef 0)
  %17 = load ptr, ptr %6, align 8
  %18 = load i32, ptr @hf_s5066dts_exp_non_arq_data_group_address, align 4
  %19 = load ptr, ptr %4, align 8
  %20 = load i32, ptr %5, align 4
  %21 = call ptr @proto_tree_add_item(ptr noundef %17, i32 noundef %18, ptr noundef %19, i32 noundef %20, i32 noundef 1, i32 noundef 0)
  %22 = load ptr, ptr %6, align 8
  %23 = load i32, ptr @hf_s5066dts_exp_non_arq_data_segmented_cpdu_size, align 4
  %24 = load ptr, ptr %4, align 8
  %25 = load i32, ptr %5, align 4
  %26 = call ptr @proto_tree_add_item(ptr noundef %22, i32 noundef %23, ptr noundef %24, i32 noundef %25, i32 noundef 2, i32 noundef 0)
  %27 = load i32, ptr %5, align 4
  %28 = add i32 %27, 2
  store i32 %28, ptr %5, align 4
  %29 = load ptr, ptr %6, align 8
  %30 = load i32, ptr @hf_s5066dts_exp_non_arq_data_cpdu_id_2, align 4
  %31 = load ptr, ptr %4, align 8
  %32 = load i32, ptr %5, align 4
  %33 = call ptr @proto_tree_add_item(ptr noundef %29, i32 noundef %30, ptr noundef %31, i32 noundef %32, i32 noundef 1, i32 noundef 0)
  %34 = load i32, ptr %5, align 4
  %35 = add i32 %34, 1
  store i32 %35, ptr %5, align 4
  %36 = load ptr, ptr %6, align 8
  %37 = load i32, ptr @hf_s5066dts_exp_non_arq_data_cpdu_size, align 4
  %38 = load ptr, ptr %4, align 8
  %39 = load i32, ptr %5, align 4
  %40 = call ptr @proto_tree_add_item(ptr noundef %36, i32 noundef %37, ptr noundef %38, i32 noundef %39, i32 noundef 2, i32 noundef 0)
  %41 = load i32, ptr %5, align 4
  %42 = add i32 %41, 2
  store i32 %42, ptr %5, align 4
  %43 = load ptr, ptr %6, align 8
  %44 = load i32, ptr @hf_s5066dts_exp_non_arq_data_cpdu_segment_offset, align 4
  %45 = load ptr, ptr %4, align 8
  %46 = load i32, ptr %5, align 4
  %47 = call ptr @proto_tree_add_item(ptr noundef %43, i32 noundef %44, ptr noundef %45, i32 noundef %46, i32 noundef 2, i32 noundef 0)
  %48 = load i32, ptr %5, align 4
  %49 = add i32 %48, 2
  store i32 %49, ptr %5, align 4
  %50 = load ptr, ptr %6, align 8
  %51 = load i32, ptr @hf_s5066dts_exp_non_arq_data_cpdu_reception_window, align 4
  %52 = load ptr, ptr %4, align 8
  %53 = load i32, ptr %5, align 4
  %54 = call ptr @proto_tree_add_item(ptr noundef %50, i32 noundef %51, ptr noundef %52, i32 noundef %53, i32 noundef 2, i32 noundef 0)
  %55 = load i32, ptr %5, align 4
  %56 = add i32 %55, 2
  store i32 %56, ptr %5, align 4
  %57 = load i32, ptr %5, align 4
  ret i32 %57
}