; Function Attrs: null_pointer_is_valid sspstrong uwtable
define internal fastcc range(i32 15, 23) i32 @dissect_s5066dts_exp_non_arq_data(ptr noundef %0, i32 noundef range(i32 6, 14) %1, ptr noundef %2) unnamed_addr #0 {
  %4 = load i32, ptr @hf_s5066dts_exp_non_arq_data_cpdu_id_1, align 4
  %5 = tail call ptr @proto_tree_add_item(ptr noundef %2, i32 noundef %4, ptr noundef %0, i32 noundef %1, i32 noundef 1, i32 noundef 0)
  %6 = load i32, ptr @hf_s5066dts_exp_non_arq_data_deliver_in_order, align 4
  %7 = tail call ptr @proto_tree_add_item(ptr noundef %2, i32 noundef %6, ptr noundef %0, i32 noundef %1, i32 noundef 1, i32 noundef 0)
  %8 = load i32, ptr @hf_s5066dts_exp_non_arq_data_group_address, align 4
  %9 = tail call ptr @proto_tree_add_item(ptr noundef %2, i32 noundef %8, ptr noundef %0, i32 noundef %1, i32 noundef 1, i32 noundef 0)
  %10 = load i32, ptr @hf_s5066dts_exp_non_arq_data_segmented_cpdu_size, align 4
  %11 = tail call ptr @proto_tree_add_item(ptr noundef %2, i32 noundef %10, ptr noundef %0, i32 noundef %1, i32 noundef 2, i32 noundef 0)
  %12 = add nuw nsw i32 %1, 2
  %13 = load i32, ptr @hf_s5066dts_exp_non_arq_data_cpdu_id_2, align 4
  %14 = tail call ptr @proto_tree_add_item(ptr noundef %2, i32 noundef %13, ptr noundef %0, i32 noundef %12, i32 noundef 1, i32 noundef 0)
  %15 = add nuw nsw i32 %1, 3
  %16 = load i32, ptr @hf_s5066dts_exp_non_arq_data_cpdu_size, align 4
  %17 = tail call ptr @proto_tree_add_item(ptr noundef %2, i32 noundef %16, ptr noundef %0, i32 noundef %15, i32 noundef 2, i32 noundef 0)
  %18 = add nuw nsw i32 %1, 5
  %19 = load i32, ptr @hf_s5066dts_exp_non_arq_data_cpdu_segment_offset, align 4
  %20 = tail call ptr @proto_tree_add_item(ptr noundef %2, i32 noundef %19, ptr noundef %0, i32 noundef %18, i32 noundef 2, i32 noundef 0)
  %21 = add nuw nsw i32 %1, 7
  %22 = load i32, ptr @hf_s5066dts_exp_non_arq_data_cpdu_reception_window, align 4
  %23 = tail call ptr @proto_tree_add_item(ptr noundef %2, i32 noundef %22, ptr noundef %0, i32 noundef %21, i32 noundef 2, i32 noundef 0)
  %24 = add nuw nsw i32 %1, 9
  ret i32 %24
}